target datalayout = "e-m:e-p270:32:32-p271:32:32-p272:64:64-i64:64-i128:128-f80:128-n8:16:32:64-S128"
target triple = "x86_64-pc-linux-gnu"

; Function Attrs: mustprogress nounwind uwtable
define linkonce_odr hidden noundef ptr @_ZNSt11__copy_moveILb0ELb1ESt26random_access_iterator_tagE8__copy_mIyEEPT_PKS3_S6_S4_(ptr noundef %0, ptr noundef %1, ptr noundef %2) #5 comdat align 2 {
  %4 = alloca ptr, align 8
  %5 = alloca ptr, align 8
  %6 = alloca ptr, align 8
  %7 = alloca i64, align 8
  store ptr %0, ptr %4, align 8
  store ptr %1, ptr %5, align 8
  store ptr %2, ptr %6, align 8
  %8 = load ptr, ptr %5, align 8
  %9 = load ptr, ptr %4, align 8
  %10 = ptrtoint ptr %8 to i64
  %11 = ptrtoint ptr %9 to i64
  %12 = sub i64 %10, %11
  %13 = sdiv exact i64 %12, 8
  store i64 %13, ptr %7, align 8
  %14 = load i64, ptr %7, align 8
  %15 = icmp ne i64 %14, 0
  br i1 %15, label %16, label %21

16:                                               ; preds = %3
  %17 = load ptr, ptr %6, align 8
  %18 = load ptr, ptr %4, align 8
  %19 = load i64, ptr %7, align 8
  %20 = mul i64 8, %19
  call void @llvm.memmove.p0.p0.i64(ptr align 8 %17, ptr align 8 %18, i64 %20, i1 false)
  br label %21

21:                                               ; preds = %16, %3
  %22 = load ptr, ptr %6, align 8
  %23 = load i64, ptr %7, align 8
  %24 = getelementptr inbounds i64, ptr %22, i64 %23
  ret ptr %24
}

; Function Attrs: mustprogress uwtable
define linkonce_odr noundef ptr @_ZSt14__copy_move_a2ILb0EPKyPyET1_T0_S4_S3_(ptr noundef %0, ptr noundef %1, ptr noundef %2) #4 comdat {
  %4 = alloca ptr, align 8
  %5 = alloca ptr, align 8
  %6 = alloca ptr, align 8
  store ptr %0, ptr %4, align 8
  store ptr %1, ptr %5, align 8
  store ptr %2, ptr %6, align 8
  %7 = load ptr, ptr %4, align 8
  %8 = load ptr, ptr %5, align 8
  %9 = load ptr, ptr %6, align 8
  %10 = call noundef ptr @_ZNSt11__copy_moveILb0ELb1ESt26random_access_iterator_tagE8__copy_mIyEEPT_PKS3_S6_S4_(ptr noundef %7, ptr noundef %8, ptr noundef %9)
  ret ptr %10
}

; Function Attrs: mustprogress nounwind uwtable
define linkonce_odr noundef ptr @_ZSt12__niter_wrapIPyET_RKS1_S1_(ptr noundef nonnull align 8 dereferenceable(8) %0, ptr noundef %1) #5 comdat {
  %3 = alloca ptr, align 8
  %4 = alloca ptr, align 8
  store ptr %0, ptr %3, align 8
  store ptr %1, ptr %4, align 8
  %5 = load ptr, ptr %4, align 8
  ret ptr %5
}

; Function Attrs: mustprogress uwtable
define linkonce_odr noundef ptr @_ZSt14__copy_move_a1ILb0EPKyPyET1_T0_S4_S3_(ptr noundef %0, ptr noundef %1, ptr noundef %2) #4 comdat {
  %4 = alloca ptr, align 8
  %5 = alloca ptr, align 8
  %6 = alloca ptr, align 8
  store ptr %0, ptr %4, align 8
  store ptr %1, ptr %5, align 8
  store ptr %2, ptr %6, align 8
  %7 = load ptr, ptr %4, align 8
  %8 = load ptr, ptr %5, align 8
  %9 = load ptr, ptr %6, align 8
  %10 = call noundef ptr @_ZSt14__copy_move_a2ILb0EPKyPyET1_T0_S4_S3_(ptr noundef %7, ptr noundef %8, ptr noundef %9)
  ret ptr %10
}

; Function Attrs: mustprogress nounwind uwtable
define linkonce_odr noundef ptr @_ZSt12__niter_baseIPyET_S1_(ptr noundef %0) #5 comdat {
  %2 = alloca ptr, align 8
  store ptr %0, ptr %2, align 8
  %3 = load ptr, ptr %2, align 8
  ret ptr %3
}

; Function Attrs: mustprogress nounwind uwtable
define linkonce_odr noundef ptr @_ZSt12__niter_baseIPKyET_S2_(ptr noundef %0) #5 comdat {
  %2 = alloca ptr, align 8
  store ptr %0, ptr %2, align 8
  %3 = load ptr, ptr %2, align 8
  ret ptr %3
}

; Function Attrs: mustprogress uwtable
define linkonce_odr noundef ptr @_ZSt13__copy_move_aILb0EPKyPyET1_T0_S4_S3_(ptr noundef %0, ptr noundef %1, ptr noundef %2) #4 comdat {
  %4 = alloca ptr, align 8
  %5 = alloca ptr, align 8
  %6 = alloca ptr, align 8
  store ptr %0, ptr %4, align 8
  store ptr %1, ptr %5, align 8
  store ptr %2, ptr %6, align 8
  %7 = load ptr, ptr %4, align 8
  %8 = call noundef ptr @_ZSt12__niter_baseIPKyET_S2_(ptr noundef %7) #3
  %9 = load ptr, ptr %5, align 8
  %10 = call noundef ptr @_ZSt12__niter_baseIPKyET_S2_(ptr noundef %9) #3
  %11 = load ptr, ptr %6, align 8
  %12 = call noundef ptr @_ZSt12__niter_baseIPyET_S1_(ptr noundef %11) #3
  %13 = call noundef ptr @_ZSt14__copy_move_a1ILb0EPKyPyET1_T0_S4_S3_(ptr noundef %8, ptr noundef %10, ptr noundef %12)
  %14 = call noundef ptr @_ZSt12__niter_wrapIPyET_RKS1_S1_(ptr noundef nonnull align 8 dereferenceable(8) %6, ptr noundef %13)
  ret ptr %14
}

; Function Attrs: mustprogress nounwind uwtable
define linkonce_odr noundef ptr @_ZSt12__miter_baseIPKyET_S2_(ptr noundef %0) #5 comdat {
  %2 = alloca ptr, align 8
  store ptr %0, ptr %2, align 8
  %3 = load ptr, ptr %2, align 8
  ret ptr %3
}

; Function Attrs: mustprogress uwtable
define linkonce_odr noundef ptr @_ZSt4copyIPKyPyET0_T_S4_S3_(ptr noundef %0, ptr noundef %1, ptr noundef %2) #4 comdat {
  %4 = alloca ptr, align 8
  %5 = alloca ptr, align 8
  %6 = alloca ptr, align 8
  store ptr %0, ptr %4, align 8
  store ptr %1, ptr %5, align 8
  store ptr %2, ptr %6, align 8
  %7 = load ptr, ptr %4, align 8
  %8 = call noundef ptr @_ZSt12__miter_baseIPKyET_S2_(ptr noundef %7)
  %9 = load ptr, ptr %5, align 8
  %10 = call noundef ptr @_ZSt12__miter_baseIPKyET_S2_(ptr noundef %9)
  %11 = load ptr, ptr %6, align 8
  %12 = call noundef ptr @_ZSt13__copy_move_aILb0EPKyPyET1_T0_S4_S3_(ptr noundef %8, ptr noundef %10, ptr noundef %11)
  ret ptr %12
}

; Function Attrs: mustprogress uwtable
define void @_ZN6casadi6MXNode8copy_fwdEPKyPyx(ptr noundef %0, ptr noundef %1, i64 noundef %2) #4 align 2 {
  %4 = alloca ptr, align 8
  %5 = alloca ptr, align 8
  %6 = alloca i64, align 8
  store ptr %0, ptr %4, align 8
  store ptr %1, ptr %5, align 8
  store i64 %2, ptr %6, align 8
  %7 = load ptr, ptr %4, align 8
  %8 = load ptr, ptr %5, align 8
  %9 = icmp ne ptr %7, %8
  br i1 %9, label %10, label %17

10:                                               ; preds = %3
  %11 = load ptr, ptr %4, align 8
  %12 = load ptr, ptr %4, align 8
  %13 = load i64, ptr %6, align 8
  %14 = getelementptr inbounds i64, ptr %12, i64 %13
  %15 = load ptr, ptr %5, align 8
  %16 = call noundef ptr @_ZSt4copyIPKyPyET0_T_S4_S3_(ptr noundef %11, ptr noundef %14, ptr noundef %15)
  br label %17

17:                                               ; preds = %10, %3
  ret void
}