; Function Attrs: mustprogress nofree norecurse nosync nounwind willreturn memory(argmem: readwrite) uwtable
define void @_ZN6casadi6MXNode8copy_fwdEPKyPyx(ptr noundef readonly %0, ptr noundef writeonly %1, i64 noundef %2) local_unnamed_addr #16 align 2 {
  %.not = icmp eq ptr %0, %1
  %.not.i.i.i.i.i = icmp eq i64 %2, 0
  %or.cond = or i1 %.not, %.not.i.i.i.i.i
  br i1 %or.cond, label %_ZSt4copyIPKyPyET0_T_S4_S3_.exit, label %4

4:                                                ; preds = %3
  %.idx = shl nsw i64 %2, 3
  tail call void @llvm.memmove.p0.p0.i64(ptr align 8 %1, ptr align 8 %0, i64 %.idx, i1 false)
  br label %_ZSt4copyIPKyPyET0_T_S4_S3_.exit

_ZSt4copyIPKyPyET0_T_S4_S3_.exit:                 ; preds = %4, %3
  ret void
}